target datalayout = "e-m:e-p270:32:32-p271:32:32-p272:64:64-i64:64-i128:128-f80:128-n8:16:32:64-S128"
target triple = "x86_64-pc-linux-gnu"

%struct.strbuf = type { i64, i64, ptr }

@__const.strbuf_add_real_path.resolved = private unnamed_addr constant %struct.strbuf { i64 0, i64 0, ptr @strbuf_slopbuf }, align 8

; Function Attrs: nounwind uwtable
define dso_local ptr @strbuf_realpath(ptr noundef %0, ptr noundef %1, i32 noundef %2) #0 {
  %4 = alloca ptr, align 8
  %5 = alloca ptr, align 8
  %6 = alloca i32, align 4
  store ptr %0, ptr %4, align 8, !tbaa !14
  store ptr %1, ptr %5, align 8, !tbaa !4
  store i32 %2, ptr %6, align 4, !tbaa !16
  %7 = load ptr, ptr %4, align 8, !tbaa !14
  %8 = load ptr, ptr %5, align 8, !tbaa !4
  %9 = load i32, ptr %6, align 4, !tbaa !16
  %10 = icmp ne i32 %9, 0
  %11 = select i1 %10, i32 2, i32 0
  %12 = call ptr @strbuf_realpath_1(ptr noundef %7, ptr noundef %8, i32 noundef %11)
  ret ptr %12
}

; Function Attrs: nounwind uwtable
define dso_local void @strbuf_add_real_path(ptr noundef %0, ptr noundef %1) #0 {
  %3 = alloca ptr, align 8
  %4 = alloca ptr, align 8
  %5 = alloca %struct.strbuf, align 8
  store ptr %0, ptr %3, align 8, !tbaa !14
  store ptr %1, ptr %4, align 8, !tbaa !4
  %6 = load ptr, ptr %3, align 8, !tbaa !14
  %7 = getelementptr inbounds nuw %struct.strbuf, ptr %6, i32 0, i32 1
  %8 = load i64, ptr %7, align 8, !tbaa !18
  %9 = icmp ne i64 %8, 0
  br i1 %9, label %10, label %14

10:                                               ; preds = %2
  call void @llvm.lifetime.start.p0(i64 24, ptr %5) #9
  call void @llvm.memcpy.p0.p0.i64(ptr align 8 %5, ptr align 8 @__const.strbuf_add_real_path.resolved, i64 24, i1 false)
  %11 = load ptr, ptr %4, align 8, !tbaa !4
  %12 = call ptr @strbuf_realpath(ptr noundef %5, ptr noundef %11, i32 noundef 1)
  %13 = load ptr, ptr %3, align 8, !tbaa !14
  call void @strbuf_addbuf(ptr noundef %13, ptr noundef %5)
  call void @strbuf_release(ptr noundef %5)
  call void @llvm.lifetime.end.p0(i64 24, ptr %5) #9
  br label %18

14:                                               ; preds = %2
  %15 = load ptr, ptr %3, align 8, !tbaa !14
  %16 = load ptr, ptr %4, align 8, !tbaa !4
  %17 = call ptr @strbuf_realpath(ptr noundef %15, ptr noundef %16, i32 noundef 1)
  br label %18

18:                                               ; preds = %14, %10
  ret void
}