; Function Attrs: nounwind uwtable
define dso_local void @strbuf_add_real_path(ptr noundef %0, ptr noundef %1) local_unnamed_addr #3 {
  %3 = alloca %struct.strbuf, align 8
  %4 = getelementptr inbounds nuw i8, ptr %0, i64 8
  %5 = load i64, ptr %4, align 8, !tbaa !12
  %.not = icmp eq i64 %5, 0
  br i1 %.not, label %8, label %6

6:                                                ; preds = %2
  call void @llvm.lifetime.start.p0(i64 24, ptr nonnull %3) #12
  call void @llvm.memcpy.p0.p0.i64(ptr noundef nonnull align 8 dereferenceable(24) %3, ptr noundef nonnull align 8 dereferenceable(24) @__const.strbuf_realpath_1.symlink, i64 24, i1 false)
  %7 = call fastcc ptr @strbuf_realpath_1(ptr noundef nonnull %3, ptr noundef %1, i32 noundef 2)
  call void @strbuf_addbuf(ptr noundef nonnull %0, ptr noundef nonnull %3) #12
  call void @strbuf_release(ptr noundef nonnull %3) #12
  call void @llvm.lifetime.end.p0(i64 24, ptr nonnull %3) #12
  br label %10

8:                                                ; preds = %2
  %9 = tail call fastcc ptr @strbuf_realpath_1(ptr noundef nonnull %0, ptr noundef %1, i32 noundef 2)
  br label %10

10:                                               ; preds = %8, %6
  ret void
}